; Function Attrs: mustprogress uwtable
define hidden void @_ZN3nla7emonics9insert_cgEj(ptr noundef nonnull align 8 dereferenceable(216) %this, i32 noundef %v) local_unnamed_addr #4 align 2 {
entry:
  %m_use_lists = getelementptr inbounds i8, ptr %this, i64 152
  %0 = load ptr, ptr %m_use_lists, align 8
  %idxprom.i = zext i32 %v to i64
  %arrayidx.i = getelementptr inbounds %"struct.nla::emonics::head_tail", ptr %0, i64 %idxprom.i
  %1 = load ptr, ptr %arrayidx.i, align 8
  %cmp = icmp eq ptr %1, null
  br i1 %cmp, label %do.end, label %if.end

if.end:                                           ; preds = %entry
  %m_visited.i = getelementptr inbounds i8, ptr %this, i64 144
  %2 = load i32, ptr %m_visited.i, align 8
  %inc.i = add i32 %2, 1
  store i32 %inc.i, ptr %m_visited.i, align 8
  %cmp.i = icmp eq i32 %inc.i, 0
  br i1 %cmp.i, label %if.then.i, label %_ZNK3nla7emonics11inc_visitedEv.exit

if.then.i:                                        ; preds = %if.end
  %m_monics.i = getelementptr inbounds i8, ptr %this, i64 128
  %3 = load ptr, ptr %m_monics.i, align 8
  %cmp.i.i.i = icmp eq ptr %3, null
  br i1 %cmp.i.i.i, label %for.end.i, label %_ZN6vectorIN3nla5monicELb1EjE3endEv.exit.i

_ZN6vectorIN3nla5monicELb1EjE3endEv.exit.i:       ; preds = %if.then.i
  %arrayidx.i.i.i = getelementptr inbounds i8, ptr %3, i64 -4
  %4 = load i32, ptr %arrayidx.i.i.i, align 4
  %5 = zext i32 %4 to i64
  %add.ptr.i.i = getelementptr inbounds %"class.nla::monic", ptr %3, i64 %5
  %cmp4.not4.i = icmp eq i32 %4, 0
  br i1 %cmp4.not4.i, label %for.end.i, label %for.body.i

for.body.i:                                       ; preds = %_ZN6vectorIN3nla5monicELb1EjE3endEv.exit.i, %for.body.i
  %__begin2.05.i = phi ptr [ %incdec.ptr.i, %for.body.i ], [ %3, %_ZN6vectorIN3nla5monicELb1EjE3endEv.exit.i ]
  %m_visited.i.i = getelementptr inbounds i8, ptr %__begin2.05.i, i64 28
  store i32 0, ptr %m_visited.i.i, align 4
  %incdec.ptr.i = getelementptr inbounds i8, ptr %__begin2.05.i, i64 40
  %cmp4.not.i = icmp eq ptr %incdec.ptr.i, %add.ptr.i.i
  br i1 %cmp4.not.i, label %for.end.loopexit.i, label %for.body.i

for.end.loopexit.i:                               ; preds = %for.body.i
  %.pre.i = load i32, ptr %m_visited.i, align 8
  %6 = add i32 %.pre.i, 1
  br label %for.end.i

for.end.i:                                        ; preds = %for.end.loopexit.i, %_ZN6vectorIN3nla5monicELb1EjE3endEv.exit.i, %if.then.i
  %inc6.i = phi i32 [ %6, %for.end.loopexit.i ], [ 1, %_ZN6vectorIN3nla5monicELb1EjE3endEv.exit.i ], [ 1, %if.then.i ]
  store i32 %inc6.i, ptr %m_visited.i, align 8
  br label %_ZNK3nla7emonics11inc_visitedEv.exit

_ZNK3nla7emonics11inc_visitedEv.exit:             ; preds = %if.end, %for.end.i
  %m_monics = getelementptr inbounds i8, ptr %this, i64 128
  %m_var2index.i = getelementptr inbounds i8, ptr %this, i64 136
  br label %do.body

do.body:                                          ; preds = %do.cond, %_ZNK3nla7emonics11inc_visitedEv.exit
  %c.0 = phi ptr [ %1, %_ZNK3nla7emonics11inc_visitedEv.exit ], [ %8, %do.cond ]
  %m_index = getelementptr inbounds i8, ptr %c.0, i64 8
  %7 = load i32, ptr %m_index, align 8
  %8 = load ptr, ptr %c.0, align 8
  %9 = load ptr, ptr %m_monics, align 8
  %idxprom.i8 = zext i32 %7 to i64
  %arrayidx.i9 = getelementptr inbounds %"class.nla::monic", ptr %9, i64 %idxprom.i8
  %10 = load i32, ptr %m_visited.i, align 8
  %11 = load i32, ptr %arrayidx.i9, align 8
  %12 = load ptr, ptr %m_var2index.i, align 8
  %idxprom.i.i = zext i32 %11 to i64
  %arrayidx.i.i = getelementptr inbounds i32, ptr %12, i64 %idxprom.i.i
  %13 = load i32, ptr %arrayidx.i.i, align 4
  %idxprom.i1.i = zext i32 %13 to i64
  %m_visited.i.i12 = getelementptr inbounds %"class.nla::monic", ptr %9, i64 %idxprom.i1.i, i32 4
  %14 = load i32, ptr %m_visited.i.i12, align 4
  %cmp.i13 = icmp eq i32 %10, %14
  br i1 %cmp.i13, label %do.cond, label %if.then4

if.then4:                                         ; preds = %do.body
  store i32 %10, ptr %m_visited.i.i12, align 4
  tail call void @_ZN3nla7emonics13insert_cg_monERNS_5monicE(ptr noundef nonnull align 8 dereferenceable(216) %this, ptr noundef nonnull align 8 dereferenceable(34) %arrayidx.i9)
  br label %do.cond

do.cond:                                          ; preds = %do.body, %if.then4
  %cmp6.not = icmp eq ptr %8, %1
  br i1 %cmp6.not, label %do.end, label %do.body, !llvm.loop !13

do.end:                                           ; preds = %do.cond, %entry
  ret void
}